target datalayout = "e-m:e-p270:32:32-p271:32:32-p272:64:64-i64:64-i128:128-f80:128-n8:16:32:64-S128"
target triple = "x86_64-pc-linux-gnu"

%"struct.Gluco2::Lit" = type { i32 }
%"struct.Gluco2::Solver::WatcherDeleted" = type { ptr }
%"struct.Gluco2::Solver::VarOrderLt" = type { ptr }
%"struct.Gluco2::Solver::JustOrderLt2" = type { ptr }
%"class.Gluco2::vec.0" = type { ptr, i32, i32 }
%"class.Gluco2::Solver" = type { ptr, i32, ptr, ptr, i32, i8, ptr, i64, %"class.Gluco2::vec", %"class.Gluco2::vec.0", i32, %"class.Gluco2::vec.1", %"class.Gluco2::vec.0", i32, i32, i32, double, double, double, double, i32, i32, i32, i32, i32, i32, double, double, double, double, i32, i32, i8, i8, double, ptr, i8, i64, i64, i64, i64, i64, i64, i64, i64, i64, i64, i64, i64, i64, i64, i64, i64, i64, i64, i64, i64, i64, i64, i32, i8, double, %"class.Gluco2::vec.2", double, %"class.Gluco2::OccLists", %"class.Gluco2::OccLists", %"class.Gluco2::vec.5", %"class.Gluco2::vec.5", %"class.Gluco2::vec.1", %"class.Gluco2::vec.4", %"class.Gluco2::vec.4", %"class.Gluco2::vec.0", %"class.Gluco2::vec", %"class.Gluco2::vec", %"class.Gluco2::vec.6", i32, i32, i64, %"class.Gluco2::vec.0", %"class.Gluco2::Heap", double, i8, %"class.Gluco2::vec.5", %"class.Gluco2::vec.0", %"class.Gluco2::ClauseAllocator", i32, %"class.Gluco2::bqueue", %"class.Gluco2::bqueue", float, i32, %"class.Gluco2::vec.4", %"class.Gluco2::vec.0", %"class.Gluco2::vec.0", %"class.Gluco2::vec.0", i32, double, double, i32, i64, i64, i8, i32, i32, double, double, i32, i32, %"class.Gluco2::vec", %"class.Gluco2::vec", i8, %"class.Gluco2::vec.7", %"class.Gluco2::vec.5", %"class.Gluco2::vec.0", %"class.Gluco2::vec.0", i32, i32, i32, i32, %"class.Gluco2::Heap2", %"class.Gluco2::vec", %"class.Gluco2::vec", i32, %"class.Gluco2::vec", %"class.Gluco2::vec.0" }
%"class.Gluco2::vec.2" = type { ptr, i32, i32 }
%"class.Gluco2::OccLists" = type { %"class.Gluco2::vec.3", %"class.Gluco2::vec.4", %"class.Gluco2::vec.0", %"struct.Gluco2::Solver::WatcherDeleted" }
%"class.Gluco2::vec.3" = type { ptr, i32, i32 }
%"class.Gluco2::vec.1" = type { ptr, i32, i32 }
%"class.Gluco2::vec.6" = type { ptr, i32, i32 }
%"class.Gluco2::Heap" = type { %"struct.Gluco2::Solver::VarOrderLt", %"class.Gluco2::vec", %"class.Gluco2::vec" }
%"class.Gluco2::ClauseAllocator" = type { %"class.Gluco2::RegionAllocator.base", i8, [3 x i8] }
%"class.Gluco2::RegionAllocator.base" = type <{ ptr, i32, i32, i32 }>
%"class.Gluco2::bqueue" = type { %"class.Gluco2::vec.5", i32, i32, i64, i32, i32, i8, double, double }
%"class.Gluco2::vec.4" = type { ptr, i32, i32 }
%"class.Gluco2::vec.7" = type { ptr, i32, i32 }
%"class.Gluco2::vec.5" = type { ptr, i32, i32 }
%"class.Gluco2::Heap2" = type { %"struct.Gluco2::Solver::JustOrderLt2", %"class.Gluco2::vec.8", %"class.Gluco2::vec" }
%"class.Gluco2::vec.8" = type { ptr, i32, i32 }
%"class.Gluco2::vec" = type { ptr, i32, i32 }
%"class.Gluco2::lbool" = type { i8 }
%"struct.Gluco2::Solver::VarData" = type { i32, i32 }

; Function Attrs: mustprogress nounwind uwtable
define linkonce_odr noundef i32 @_ZNK6Gluco23vecIiE4sizeEv(ptr noundef nonnull align 8 dereferenceable(16) %0) #2 comdat align 2 {
  %2 = alloca ptr, align 8
  store ptr %0, ptr %2, align 8
  %3 = load ptr, ptr %2, align 8
  %4 = getelementptr inbounds %"class.Gluco2::vec", ptr %3, i32 0, i32 1
  %5 = load i32, ptr %4, align 8
  ret i32 %5
}

; Function Attrs: mustprogress nounwind uwtable
define linkonce_odr noundef nonnull align 4 dereferenceable(4) ptr @_ZNK6Gluco23vecIjEixEi(ptr noundef nonnull align 8 dereferenceable(16) %0, i32 noundef %1) #2 comdat align 2 {
  %3 = alloca ptr, align 8
  %4 = alloca i32, align 4
  store ptr %0, ptr %3, align 8
  store i32 %1, ptr %4, align 4
  %5 = load ptr, ptr %3, align 8
  %6 = getelementptr inbounds %"class.Gluco2::vec.5", ptr %5, i32 0, i32 0
  %7 = load ptr, ptr %6, align 8
  %8 = load i32, ptr %4, align 4
  %9 = sext i32 %8 to i64
  %10 = getelementptr inbounds i32, ptr %7, i64 %9
  ret ptr %10
}

; Function Attrs: mustprogress nounwind uwtable
define linkonce_odr void @_ZN6Gluco23vecINS_3LitEE5push_ERKS1_(ptr noundef nonnull align 8 dereferenceable(16) %0, ptr noundef nonnull align 4 dereferenceable(4) %1) #2 comdat align 2 {
  %3 = alloca ptr, align 8
  %4 = alloca ptr, align 8
  store ptr %0, ptr %3, align 8
  store ptr %1, ptr %4, align 8
  %5 = load ptr, ptr %3, align 8
  %6 = load ptr, ptr %4, align 8
  %7 = getelementptr inbounds %"class.Gluco2::vec.0", ptr %5, i32 0, i32 0
  %8 = load ptr, ptr %7, align 8
  %9 = getelementptr inbounds %"class.Gluco2::vec.0", ptr %5, i32 0, i32 1
  %10 = load i32, ptr %9, align 8
  %11 = add nsw i32 %10, 1
  store i32 %11, ptr %9, align 8
  %12 = sext i32 %10 to i64
  %13 = getelementptr inbounds %"struct.Gluco2::Lit", ptr %8, i64 %12
  call void @llvm.memcpy.p0.p0.i64(ptr align 4 %13, ptr align 4 %6, i64 4, i1 false)
  ret void
}

; Function Attrs: mustprogress nounwind uwtable
define linkonce_odr noundef nonnull align 4 dereferenceable(8) ptr @_ZN6Gluco23vecINS_6Solver7VarDataEEixEi(ptr noundef nonnull align 8 dereferenceable(16) %0, i32 noundef %1) #2 comdat align 2 {
  %3 = alloca ptr, align 8
  %4 = alloca i32, align 4
  store ptr %0, ptr %3, align 8
  store i32 %1, ptr %4, align 4
  %5 = load ptr, ptr %3, align 8
  %6 = getelementptr inbounds %"class.Gluco2::vec.6", ptr %5, i32 0, i32 0
  %7 = load ptr, ptr %6, align 8
  %8 = load i32, ptr %4, align 4
  %9 = sext i32 %8 to i64
  %10 = getelementptr inbounds %"struct.Gluco2::Solver::VarData", ptr %7, i64 %9
  ret ptr %10
}

; Function Attrs: mustprogress nounwind uwtable
define linkonce_odr i64 @_ZN6Gluco26Solver9mkVarDataEji(i32 noundef %0, i32 noundef %1) #2 comdat align 2 {
  %3 = alloca %"struct.Gluco2::Solver::VarData", align 4
  %4 = alloca i32, align 4
  %5 = alloca i32, align 4
  store i32 %0, ptr %4, align 4
  store i32 %1, ptr %5, align 4
  %6 = getelementptr inbounds %"struct.Gluco2::Solver::VarData", ptr %3, i32 0, i32 0
  %7 = load i32, ptr %4, align 4
  store i32 %7, ptr %6, align 4
  %8 = getelementptr inbounds %"struct.Gluco2::Solver::VarData", ptr %3, i32 0, i32 1
  %9 = load i32, ptr %5, align 4
  store i32 %9, ptr %8, align 4
  %10 = load i64, ptr %3, align 4
  ret i64 %10
}

; Function Attrs: mustprogress uwtable
define linkonce_odr noundef i32 @_ZNK6Gluco26Solver13decisionLevelEv(ptr noundef nonnull align 8 dereferenceable(1416) %0) #1 comdat align 2 {
  %2 = alloca ptr, align 8
  store ptr %0, ptr %2, align 8
  %3 = load ptr, ptr %2, align 8
  %4 = getelementptr inbounds %"class.Gluco2::Solver", ptr %3, i32 0, i32 73
  %5 = call noundef i32 @_ZNK6Gluco23vecIiE4sizeEv(ptr noundef nonnull align 8 dereferenceable(16) %4)
  ret i32 %5
}

; Function Attrs: mustprogress nounwind uwtable
define linkonce_odr noundef nonnull align 1 dereferenceable(1) ptr @_ZN6Gluco23vecINS_5lboolEEixEi(ptr noundef nonnull align 8 dereferenceable(16) %0, i32 noundef %1) #2 comdat align 2 {
  %3 = alloca ptr, align 8
  %4 = alloca i32, align 4
  store ptr %0, ptr %3, align 8
  store i32 %1, ptr %4, align 4
  %5 = load ptr, ptr %3, align 8
  %6 = getelementptr inbounds %"class.Gluco2::vec.1", ptr %5, i32 0, i32 0
  %7 = load ptr, ptr %6, align 8
  %8 = load i32, ptr %4, align 4
  %9 = sext i32 %8 to i64
  %10 = getelementptr inbounds %"class.Gluco2::lbool", ptr %7, i64 %9
  ret ptr %10
}

; Function Attrs: mustprogress nounwind uwtable
define linkonce_odr void @_ZN6Gluco25lboolC2Eb(ptr noundef nonnull align 1 dereferenceable(1) %0, i1 noundef zeroext %1) unnamed_addr #2 comdat align 2 {
  %3 = alloca ptr, align 8
  %4 = alloca i8, align 1
  store ptr %0, ptr %3, align 8
  %5 = zext i1 %1 to i8
  store i8 %5, ptr %4, align 1
  %6 = load ptr, ptr %3, align 8
  %7 = getelementptr inbounds %"class.Gluco2::lbool", ptr %6, i32 0, i32 0
  %8 = load i8, ptr %4, align 1
  %9 = trunc i8 %8 to i1
  %10 = xor i1 %9, true
  %11 = zext i1 %10 to i8
  store i8 %11, ptr %7, align 1
  ret void
}

; Function Attrs: mustprogress nounwind uwtable
define linkonce_odr noundef zeroext i1 @_ZN6Gluco24signENS_3LitE(i32 %0) #2 comdat {
  %2 = alloca %"struct.Gluco2::Lit", align 4
  %3 = getelementptr inbounds %"struct.Gluco2::Lit", ptr %2, i32 0, i32 0
  store i32 %0, ptr %3, align 4
  %4 = getelementptr inbounds %"struct.Gluco2::Lit", ptr %2, i32 0, i32 0
  %5 = load i32, ptr %4, align 4
  %6 = and i32 %5, 1
  %7 = icmp ne i32 %6, 0
  ret i1 %7
}

; Function Attrs: mustprogress uwtable
define linkonce_odr noundef zeroext i1 @_ZNK6Gluco26Solver12isRoundWatchEi(ptr noundef nonnull align 8 dereferenceable(1416) %0, i32 noundef %1) #1 comdat align 2 {
  %3 = alloca ptr, align 8
  %4 = alloca i32, align 4
  store ptr %0, ptr %3, align 8
  store i32 %1, ptr %4, align 4
  %5 = load ptr, ptr %3, align 8
  %6 = getelementptr inbounds %"class.Gluco2::Solver", ptr %5, i32 0, i32 116
  %7 = load i32, ptr %6, align 8
  %8 = getelementptr inbounds %"class.Gluco2::Solver", ptr %5, i32 0, i32 111
  %9 = load i32, ptr %4, align 4
  %10 = call noundef nonnull align 4 dereferenceable(4) ptr @_ZNK6Gluco23vecIjEixEi(ptr noundef nonnull align 8 dereferenceable(16) %8, i32 noundef %9)
  %11 = load i32, ptr %10, align 4
  %12 = icmp eq i32 %7, %11
  ret i1 %12
}

; Function Attrs: mustprogress nounwind uwtable
define linkonce_odr noundef i32 @_ZN6Gluco23varENS_3LitE(i32 %0) #2 comdat {
  %2 = alloca %"struct.Gluco2::Lit", align 4
  %3 = getelementptr inbounds %"struct.Gluco2::Lit", ptr %2, i32 0, i32 0
  store i32 %0, ptr %3, align 4
  %4 = getelementptr inbounds %"struct.Gluco2::Lit", ptr %2, i32 0, i32 0
  %5 = load i32, ptr %4, align 4
  %6 = ashr i32 %5, 1
  ret i32 %6
}

; Function Attrs: mustprogress nounwind uwtable
define linkonce_odr noundef i32 @_ZNK6Gluco26Solver9justUsageEv(ptr noundef nonnull align 8 dereferenceable(1416) %0) #2 comdat align 2 {
  %2 = alloca ptr, align 8
  store ptr %0, ptr %2, align 8
  %3 = load ptr, ptr %2, align 8
  %4 = getelementptr inbounds %"class.Gluco2::Solver", ptr %3, i32 0, i32 10
  %5 = load i32, ptr %4, align 8
  ret i32 %5
}

; Function Attrs: mustprogress uwtable
define void @_ZN6Gluco26Solver16uncheckedEnqueueENS_3LitEj(ptr noundef nonnull align 8 dereferenceable(1416) %0, i32 %1, i32 noundef %2) #1 align 2 {
  %4 = alloca %"struct.Gluco2::Lit", align 4
  %5 = alloca ptr, align 8
  %6 = alloca i32, align 4
  %7 = alloca %"struct.Gluco2::Lit", align 4
  %8 = alloca %"class.Gluco2::lbool", align 1
  %9 = alloca %"struct.Gluco2::Lit", align 4
  %10 = alloca %"struct.Gluco2::Lit", align 4
  %11 = alloca %"struct.Gluco2::Solver::VarData", align 4
  %12 = alloca %"struct.Gluco2::Lit", align 4
  %13 = getelementptr inbounds %"struct.Gluco2::Lit", ptr %4, i32 0, i32 0
  store i32 %1, ptr %13, align 4
  store ptr %0, ptr %5, align 8
  store i32 %2, ptr %6, align 4
  %14 = load ptr, ptr %5, align 8
  %15 = call noundef i32 @_ZNK6Gluco26Solver9justUsageEv(ptr noundef nonnull align 8 dereferenceable(1416) %14)
  %16 = icmp ne i32 %15, 0
  br i1 %16, label %17, label %23

17:                                               ; preds = %3
  call void @llvm.memcpy.p0.p0.i64(ptr align 4 %7, ptr align 4 %4, i64 4, i1 false)
  %18 = getelementptr inbounds %"struct.Gluco2::Lit", ptr %7, i32 0, i32 0
  %19 = load i32, ptr %18, align 4
  %20 = call noundef i32 @_ZN6Gluco23varENS_3LitE(i32 %19)
  %21 = call noundef zeroext i1 @_ZNK6Gluco26Solver12isRoundWatchEi(ptr noundef nonnull align 8 dereferenceable(1416) %14, i32 noundef %20)
  br i1 %21, label %23, label %22

22:                                               ; preds = %17
  br label %42

23:                                               ; preds = %17, %3
  call void @llvm.memcpy.p0.p0.i64(ptr align 4 %9, ptr align 4 %4, i64 4, i1 false)
  %24 = getelementptr inbounds %"struct.Gluco2::Lit", ptr %9, i32 0, i32 0
  %25 = load i32, ptr %24, align 4
  %26 = call noundef zeroext i1 @_ZN6Gluco24signENS_3LitE(i32 %25)
  %27 = xor i1 %26, true
  call void @_ZN6Gluco25lboolC2Eb(ptr noundef nonnull align 1 dereferenceable(1) %8, i1 noundef zeroext %27)
  %28 = getelementptr inbounds %"class.Gluco2::Solver", ptr %14, i32 0, i32 68
  call void @llvm.memcpy.p0.p0.i64(ptr align 4 %10, ptr align 4 %4, i64 4, i1 false)
  %29 = getelementptr inbounds %"struct.Gluco2::Lit", ptr %10, i32 0, i32 0
  %30 = load i32, ptr %29, align 4
  %31 = call noundef i32 @_ZN6Gluco23varENS_3LitE(i32 %30)
  %32 = call noundef nonnull align 1 dereferenceable(1) ptr @_ZN6Gluco23vecINS_5lboolEEixEi(ptr noundef nonnull align 8 dereferenceable(16) %28, i32 noundef %31)
  call void @llvm.memcpy.p0.p0.i64(ptr align 1 %32, ptr align 1 %8, i64 1, i1 false)
  %33 = load i32, ptr %6, align 4
  %34 = call noundef i32 @_ZNK6Gluco26Solver13decisionLevelEv(ptr noundef nonnull align 8 dereferenceable(1416) %14)
  %35 = call i64 @_ZN6Gluco26Solver9mkVarDataEji(i32 noundef %33, i32 noundef %34)
  store i64 %35, ptr %11, align 4
  %36 = getelementptr inbounds %"class.Gluco2::Solver", ptr %14, i32 0, i32 74
  call void @llvm.memcpy.p0.p0.i64(ptr align 4 %12, ptr align 4 %4, i64 4, i1 false)
  %37 = getelementptr inbounds %"struct.Gluco2::Lit", ptr %12, i32 0, i32 0
  %38 = load i32, ptr %37, align 4
  %39 = call noundef i32 @_ZN6Gluco23varENS_3LitE(i32 %38)
  %40 = call noundef nonnull align 4 dereferenceable(8) ptr @_ZN6Gluco23vecINS_6Solver7VarDataEEixEi(ptr noundef nonnull align 8 dereferenceable(16) %36, i32 noundef %39)
  call void @llvm.memcpy.p0.p0.i64(ptr align 4 %40, ptr align 4 %11, i64 8, i1 false)
  %41 = getelementptr inbounds %"class.Gluco2::Solver", ptr %14, i32 0, i32 71
  call void @_ZN6Gluco23vecINS_3LitEE5push_ERKS1_(ptr noundef nonnull align 8 dereferenceable(16) %41, ptr noundef nonnull align 4 dereferenceable(4) %4)
  br label %42

42:                                               ; preds = %23, %22
  ret void
}