; Function Attrs: mustprogress nofree norecurse nosync nounwind willreturn memory(readwrite, inaccessiblemem: none) uwtable
define void @_ZN6Gluco26Solver16uncheckedEnqueueENS_3LitEj(ptr nocapture noundef nonnull align 8 dereferenceable(1416) %0, i32 %1, i32 noundef %2) local_unnamed_addr #8 align 2 {
  %4 = getelementptr inbounds i8, ptr %0, i64 88
  %5 = load i32, ptr %4, align 8
  %.not = icmp eq i32 %5, 0
  %.pre = ashr i32 %1, 1
  br i1 %.not, label %._crit_edge, label %6

._crit_edge:                                      ; preds = %3
  %.pre10 = sext i32 %.pre to i64
  br label %15

6:                                                ; preds = %3
  %7 = getelementptr inbounds i8, ptr %0, i64 1296
  %8 = load i32, ptr %7, align 8
  %9 = getelementptr inbounds i8, ptr %0, i64 1240
  %10 = load ptr, ptr %9, align 8
  %11 = sext i32 %.pre to i64
  %12 = getelementptr inbounds i32, ptr %10, i64 %11
  %13 = load i32, ptr %12, align 4
  %14 = icmp eq i32 %8, %13
  br i1 %14, label %15, label %33

15:                                               ; preds = %._crit_edge, %6
  %.pre-phi11 = phi i64 [ %.pre10, %._crit_edge ], [ %11, %6 ]
  %16 = trunc i32 %1 to i8
  %17 = and i8 %16, 1
  %18 = getelementptr inbounds i8, ptr %0, i64 632
  %19 = load ptr, ptr %18, align 8
  %20 = getelementptr inbounds %"class.Gluco2::lbool", ptr %19, i64 %.pre-phi11
  store i8 %17, ptr %20, align 1
  %21 = getelementptr inbounds i8, ptr %0, i64 720
  %22 = load i32, ptr %21, align 8
  %.sroa.2.0.insert.ext.i = zext i32 %22 to i64
  %.sroa.2.0.insert.shift.i = shl nuw i64 %.sroa.2.0.insert.ext.i, 32
  %.sroa.0.0.insert.ext.i = zext i32 %2 to i64
  %.sroa.0.0.insert.insert.i = or disjoint i64 %.sroa.2.0.insert.shift.i, %.sroa.0.0.insert.ext.i
  %23 = getelementptr inbounds i8, ptr %0, i64 728
  %24 = load ptr, ptr %23, align 8
  %25 = getelementptr inbounds %"struct.Gluco2::Solver::VarData", ptr %24, i64 %.pre-phi11
  store i64 %.sroa.0.0.insert.insert.i, ptr %25, align 4
  %26 = getelementptr inbounds i8, ptr %0, i64 680
  %27 = load ptr, ptr %26, align 8
  %28 = getelementptr inbounds i8, ptr %0, i64 688
  %29 = load i32, ptr %28, align 8
  %30 = add nsw i32 %29, 1
  store i32 %30, ptr %28, align 8
  %31 = sext i32 %29 to i64
  %32 = getelementptr inbounds %"struct.Gluco2::Lit", ptr %27, i64 %31
  store i32 %1, ptr %32, align 4
  br label %33

33:                                               ; preds = %6, %15
  ret void
}